(lp0
(lp1
F17.406981800000001
aF78.512838799999997
aa(lp2
F17.407035499999999
aF78.488691200000005
aa(lp3
F17.385044000000001
aF78.486671000000001
aa(lp4
F17.444865
aF78.469396000000003
aa(lp5
F17.3873082
aF78.462406400000006
aa(lp6
F17.385044000000001
aF78.486671000000001
aa(lp7
F17.404453799999999
aF78.494373499999995
aa(lp8
F17.4884825
aF78.536980600000007
aa(lp9
F17.413107199999999
aF78.492952900000006
aa(lp10
F17.410168599999999
aF78.505026900000004
aa(lp11
F17.396926499999999
aF78.490111799999994
aa(lp12
F17.481775599999999
aF78.536597400000005
aa(lp13
F17.420773499999999
aF78.512128599999997
aa(lp14
F17.499146799999998
aF78.557567599999999
aa(lp15
F17.440193900000001
aF78.483008600000005
aa(lp16
F17.424867299999999
aF78.519939899999997
aa(lp17
F17.438724499999999
aF78.4453532
aa(lp18
F17.417256800000001
aF78.514258999999996
aa(lp19
F17.449237
aF78.500765700000002
aa(lp20
F17.294787500000002
aF78.485849900000005
aa(lp21
F17.5450534
aF78.570343699999995
aa(lp22
F17.4136287
aF78.4894015
aa(lp23
F17.409642999999999
aF78.408382000000003
aa(lp24
F17.4271463
aF78.496504299999998
aa(lp25
F17.48
aF78.329999999999998
aa(lp26
F17.5468498
aF78.365023100000002
aa(lp27
F17.483332999999998
aF78.416667000000004
aa(lp28
F17.4968
aF78.361400000000003
aa(lp29
F17.509326399999999
aF78.385039399999997
aa(lp30
F17.4318095
aF78.643705400000002
aa(lp31
F17.520342400000001
aF78.397020499999996
aa(lp32
F17.385044000000001
aF78.486671000000001
aa(lp33
F17.354437900000001
aF78.506166699999994
aa(lp34
F17.487422800000001
aF78.3324444
aa(lp35
F17.400906899999999
aF78.458006900000001
aa(lp36
F17.3996648
aF78.449616800000001
aa(lp37
F17.3695573
aF78.432561500000006
aa(lp38
F17.397191100000001
aF78.444642599999995
aa(lp39
F17.3818622
aF78.421995499999994
aa(lp40
F17.3986695
aF78.432561500000006
aa(lp41
F17.489008599999998
aF78.415147899999994
aa(lp42
F17.3986695
aF78.432561500000006
aa(lp43
F17.394573600000001
aF78.424743500000005
aa(lp44
F17.297785000000001
aF78.392819000000003
aa(lp45
F17.469243299999999
aF78.485401800000005
aa(lp46
F17.383675400000001
aF78.437536199999997
aa(lp47
F17.376529999999999
aF78.430767200000005
aa(lp48
F17.409161099999999
aF78.2753376
aa(lp49
F17.499342599999999
aF78.460985399999998
aa(lp50
F17.401432400000001
aF78.505026900000004
aa(lp51
F17.412860500000001
aF78.5263305
aa(lp52
F17.313076500000001
aF78.563246100000001
aa(lp53
F17.391515299999998
aF78.497214499999998
aa(lp54
F17.4068127
aF78.547629599999993
aa(lp55
F17.442101000000001
aF78.531846400000006
aa(lp56
F17.428245400000002
aF78.540530399999994
aa(lp57
F17.405118999999999
aF78.557939000000005
aa(lp58
F17.464458
aF78.606457000000006
aa(lp59
F17.390877100000001
aF78.549049400000001
aa(lp60
F17.363848900000001
aF78.534850700000007
aa(lp61
F17.3761525
aF78.5462098
aa(lp62
F17.347361500000002
aF78.551888899999994
aa(lp63
F17.374445000000001
aF78.505896000000007
aa(lp64
F17.377198400000001
aF78.539110500000007
aa(lp65
F17.303766499999998
aF78.571897199999995
aa(lp66
F17.5011148
aF78.395940800000005
aa(lp67
F17.434766
aF78.558172999999996
aa(lp68
F17.3866461
aF78.451037999999997
aa(lp69
F17.493094200000002
aF78.503606500000004
aa(lp70
F17.438890600000001
aF78.448195600000005
aa(lp71
F17.488377
aF78.401351700000006
aa(lp72
F17.385044000000001
aF78.486671000000001
aa(lp73
F17.466798900000001
aF78.539820399999996
aa(lp74
F17.359889299999999
aF78.5046617
aa(lp75
F17.465387499999999
aF78.478036000000003
aa(lp76
F17.445446499999999
aF78.510708300000005
aa(lp77
F17.447810400000002
aF78.5263305
aa(lp78
F17.4463951
aF78.502269900000002
aa(lp79
F17.640207499999999
aF78.471997599999995
aa(lp80
F17.473939000000001
aF78.511915000000002
aa(lp81
F17.4682326
aF78.446193399999999
aa(lp82
F17.538236999999999
aF78.480804000000006
aa(lp83
F17.4556969
aF78.483541299999999
aa(lp84
F17.514406300000001
aF78.469511100000005
aa(lp85
F17.494505400000001
aF78.459209200000004
aa(lp86
F17.393646199999999
aF78.440023499999995
aa(lp87
F17.330788099999999
aF78.466669300000007
aa(lp88
F17.4405556
aF78.391111100000003
aa(lp89
F17.437161
aF78.344397000000001
aa(lp90
F17.429531699999998
aF78.412660000000002
aa(lp91
F17.458217999999999
aF78.364683999999997
aa(lp92
F17.466419699999999
aF78.285342
aa(lp93
F17.413435199999999
aF78.411238400000002
aa(lp94
F17.412271499999999
aF78.456816799999999
aa(lp95
F17.38364
aF78.466964000000004
aa(lp96
F17.438890600000001
aF78.448195600000005
aa(lp97
F17.398954400000001
aF78.462406400000006
aa(lp98
F17.416470700000001
aF78.438246899999996
aa(lp99
F17.4244971
aF78.451037999999997
aa(lp100
F17.399781600000001
aF78.476615199999998
aa(lp101
F17.410907600000002
aF78.480167100000003
aa(lp102
F17.493565
aF78.410444999999996
aa(lp103
F17.392987999999999
aF78.470589000000004
aa(lp104
F17.426797000000001
aF78.457644000000002
aa(lp105
F17.419170900000001
aF78.459564400000005
aa(lp106
F17.407855099999999
aF78.465248299999999
aa(lp107
F17.333719299999998
aF78.508303799999993
aa(lp108
F17.4197898
aF78.451988499999999
aa(lp109
F17.447460499999998
aF78.4453532
aa(lp110
F17.457322600000001
aF78.422453399999995
aa(lp111
F17.439000199999999
aF78.443028100000006
aa(lp112
F17.400893
aF78.3835117
aa(lp113
F17.3844262
aF78.525620399999994
aa(lp114
F17.431965000000002
aF78.441800099999995
aa(lp115
F17.432402100000001
aF78.436825600000006
aa(lp116
F17.428305099999999
aF78.429007900000002
aa(lp117
F17.407200599999999
aF78.491532399999997
aa(lp118
F17.4555705
aF78.409816699999993
aa(lp119
F17.444111199999998
aF78.450327400000006
aa(lp120
F17.370115999999999
aF78.576531000000003
aa(lp121
F17.352924600000001
aF78.493409900000003
aa(lp122
F17.385044000000001
aF78.486671000000001
aa(lp123
F17.3802281
aF78.558363600000007
aa(lp124
F17.497587100000001
aF78.452322600000002
aa(lp125
F17.3953399
aF78.375690000000006
aa.